target datalayout = "e-m:e-p270:32:32-p271:32:32-p272:64:64-i64:64-i128:128-f80:128-n8:16:32:64-S128"
target triple = "x86_64-pc-linux-gnu"

%struct.RBasic = type { i64, i64 }
%struct.RString = type { %struct.RBasic, i64, %union.anon }
%union.anon = type { %struct.anon.1 }
%struct.anon.1 = type { ptr, %union.anon.2 }
%union.anon.2 = type { i64 }
%struct.npn_select_cb_common_args = type { i64, ptr, i32 }

@id_call = internal global i64 0, align 8
@eSSLError = internal global i64 0, align 8
@.str.228 = private unnamed_addr constant [47 x i8] c"Selected protocol name must have length 1..255\00", align 1

; Function Attrs: inlinehint nounwind sspstrong willreturn memory(read) uwtable
define internal i64 @RSTRING_LEN(i64 noundef %0) #1 {
  %2 = alloca i64, align 8
  store i64 %0, ptr %2, align 8, !tbaa !14
  %3 = load i64, ptr %2, align 8, !tbaa !14
  %4 = inttoptr i64 %3 to ptr
  %5 = getelementptr inbounds nuw %struct.RString, ptr %4, i32 0, i32 1
  %6 = load i64, ptr %5, align 8, !tbaa !54
  ret i64 %6
}

; Function Attrs: nounwind sspstrong uwtable
define internal i64 @npn_select_cb_common_i(i64 noundef %0) #0 {
  %2 = alloca i64, align 8
  %3 = alloca ptr, align 8
  %4 = alloca ptr, align 8
  %5 = alloca ptr, align 8
  %6 = alloca i8, align 1
  %7 = alloca i64, align 8
  %8 = alloca i64, align 8
  %9 = alloca i64, align 8
  store i64 %0, ptr %2, align 8, !tbaa !14
  call void @llvm.lifetime.start.p0(i64 8, ptr %3) #20
  %10 = load i64, ptr %2, align 8, !tbaa !14
  %11 = inttoptr i64 %10 to ptr
  store ptr %11, ptr %3, align 8, !tbaa !96
  call void @llvm.lifetime.start.p0(i64 8, ptr %4) #20
  %12 = load ptr, ptr %3, align 8, !tbaa !96
  %13 = getelementptr inbounds nuw %struct.npn_select_cb_common_args, ptr %12, i32 0, i32 1
  %14 = load ptr, ptr %13, align 8, !tbaa !94
  store ptr %14, ptr %4, align 8, !tbaa !16
  call void @llvm.lifetime.start.p0(i64 8, ptr %5) #20
  %15 = load ptr, ptr %4, align 8, !tbaa !16
  %16 = load ptr, ptr %3, align 8, !tbaa !96
  %17 = getelementptr inbounds nuw %struct.npn_select_cb_common_args, ptr %16, i32 0, i32 2
  %18 = load i32, ptr %17, align 8, !tbaa !95
  %19 = zext i32 %18 to i64
  %20 = getelementptr inbounds nuw i8, ptr %15, i64 %19
  store ptr %20, ptr %5, align 8, !tbaa !16
  call void @llvm.lifetime.start.p0(i64 1, ptr %6) #20
  call void @llvm.lifetime.start.p0(i64 8, ptr %7) #20
  call void @llvm.lifetime.start.p0(i64 8, ptr %8) #20
  call void @llvm.lifetime.start.p0(i64 8, ptr %9) #20
  %21 = call i64 @rb_ary_new()
  store i64 %21, ptr %9, align 8, !tbaa !14
  br label %22

22:                                               ; preds = %34, %1
  %23 = load ptr, ptr %4, align 8, !tbaa !16
  %24 = load ptr, ptr %5, align 8, !tbaa !16
  %25 = icmp ult ptr %23, %24
  br i1 %25, label %26, label %47

26:                                               ; preds = %22
  %27 = load ptr, ptr %4, align 8, !tbaa !16
  %28 = getelementptr inbounds nuw i8, ptr %27, i32 1
  store ptr %28, ptr %4, align 8, !tbaa !16
  %29 = load i8, ptr %27, align 1, !tbaa !53
  store i8 %29, ptr %6, align 1, !tbaa !53
  %30 = load i64, ptr %9, align 8, !tbaa !14
  br i1 false, label %31, label %34

31:                                               ; preds = %26
  %32 = load i8, ptr %6, align 1, !tbaa !53
  %33 = call i1 @llvm.is.constant.i8(i8 %32)
  br label %34

34:                                               ; preds = %31, %26
  %35 = phi i1 [ false, %26 ], [ %33, %31 ]
  %36 = select i1 %35, ptr @rb_str_new_static, ptr @rb_str_new
  %37 = load ptr, ptr %4, align 8, !tbaa !16
  %38 = load i8, ptr %6, align 1, !tbaa !53
  %39 = zext i8 %38 to i64
  %40 = call i64 %36(ptr noundef %37, i64 noundef %39)
  %41 = call i64 @rb_ary_push(i64 noundef %30, i64 noundef %40)
  %42 = load i8, ptr %6, align 1, !tbaa !53
  %43 = zext i8 %42 to i32
  %44 = load ptr, ptr %4, align 8, !tbaa !16
  %45 = sext i32 %43 to i64
  %46 = getelementptr inbounds i8, ptr %44, i64 %45
  store ptr %46, ptr %4, align 8, !tbaa !16
  br label %22, !llvm.loop !98

47:                                               ; preds = %22
  %48 = load ptr, ptr %3, align 8, !tbaa !96
  %49 = getelementptr inbounds nuw %struct.npn_select_cb_common_args, ptr %48, i32 0, i32 0
  %50 = load i64, ptr %49, align 8, !tbaa !92
  %51 = load i64, ptr @id_call, align 8, !tbaa !14
  %52 = call i64 @rb_funcallv(i64 noundef %50, i64 noundef %51, i32 noundef 1, ptr noundef %9)
  store i64 %52, ptr %8, align 8, !tbaa !14
  %53 = call i64 @rb_string_value(ptr noundef %8)
  %54 = load i64, ptr %8, align 8, !tbaa !14
  %55 = call i64 @RSTRING_LEN(i64 noundef %54) #21
  store i64 %55, ptr %7, align 8, !tbaa !14
  %56 = load i64, ptr %7, align 8, !tbaa !14
  %57 = icmp slt i64 %56, 1
  br i1 %57, label %61, label %58

58:                                               ; preds = %47
  %59 = load i64, ptr %7, align 8, !tbaa !14
  %60 = icmp sge i64 %59, 256
  br i1 %60, label %61, label %63

61:                                               ; preds = %58, %47
  %62 = load i64, ptr @eSSLError, align 8, !tbaa !14
  call void (i64, ptr, ...) @ossl_raise(i64 noundef %62, ptr noundef @.str.228) #22
  unreachable

63:                                               ; preds = %58
  %64 = load i64, ptr %8, align 8, !tbaa !14
  call void @llvm.lifetime.end.p0(i64 8, ptr %9) #20
  call void @llvm.lifetime.end.p0(i64 8, ptr %8) #20
  call void @llvm.lifetime.end.p0(i64 8, ptr %7) #20
  call void @llvm.lifetime.end.p0(i64 1, ptr %6) #20
  call void @llvm.lifetime.end.p0(i64 8, ptr %5) #20
  call void @llvm.lifetime.end.p0(i64 8, ptr %4) #20
  call void @llvm.lifetime.end.p0(i64 8, ptr %3) #20
  ret i64 %64
}