; Function Attrs: nounwind sspstrong uwtable
define internal i64 @npn_select_cb_common_i(i64 noundef %0) #0 {
  %2 = alloca i64, align 8
  %3 = alloca i64, align 8
  %4 = inttoptr i64 %0 to ptr
  %5 = getelementptr inbounds nuw i8, ptr %4, i64 8
  %6 = load ptr, ptr %5, align 8, !tbaa !79
  %7 = getelementptr inbounds nuw i8, ptr %4, i64 16
  %8 = load i32, ptr %7, align 8, !tbaa !80
  %9 = zext i32 %8 to i64
  %10 = getelementptr inbounds nuw i8, ptr %6, i64 %9
  call void @llvm.lifetime.start.p0(i64 8, ptr nonnull %2) #9
  call void @llvm.lifetime.start.p0(i64 8, ptr nonnull %3) #9
  %11 = tail call i64 @rb_ary_new() #9
  store i64 %11, ptr %3, align 8, !tbaa !10
  %.not = icmp eq i32 %8, 0
  br i1 %.not, label %._crit_edge, label %.lr.ph

.lr.ph:                                           ; preds = %1, %.lr.ph
  %.014 = phi ptr [ %17, %.lr.ph ], [ %6, %1 ]
  %12 = getelementptr inbounds nuw i8, ptr %.014, i64 1
  %13 = load i8, ptr %.014, align 1, !tbaa !30
  %14 = zext i8 %13 to i64
  %15 = tail call i64 @rb_str_new(ptr noundef nonnull %12, i64 noundef %14) #9
  %16 = tail call i64 @rb_ary_push(i64 noundef %11, i64 noundef %15) #9
  %17 = getelementptr inbounds nuw i8, ptr %12, i64 %14
  %18 = icmp ult ptr %17, %10
  br i1 %18, label %.lr.ph, label %._crit_edge, !llvm.loop !95

._crit_edge:                                      ; preds = %.lr.ph, %1
  %19 = load i64, ptr %4, align 8, !tbaa !77
  %20 = load i64, ptr @id_call, align 8, !tbaa !10
  %21 = call i64 @rb_funcallv(i64 noundef %19, i64 noundef %20, i32 noundef 1, ptr noundef nonnull %3) #9
  store i64 %21, ptr %2, align 8, !tbaa !10
  %22 = call i64 @rb_string_value(ptr noundef nonnull %2) #9
  %23 = load i64, ptr %2, align 8, !tbaa !10
  %24 = inttoptr i64 %23 to ptr
  %25 = getelementptr inbounds nuw i8, ptr %24, i64 16
  %26 = load i64, ptr %25, align 8, !tbaa !37
  %27 = add i64 %26, -256
  %or.cond = icmp ult i64 %27, -255
  br i1 %or.cond, label %28, label %30

28:                                               ; preds = %._crit_edge
  %29 = load i64, ptr @eSSLError, align 8, !tbaa !10
  call void (i64, ptr, ...) @ossl_raise(i64 noundef %29, ptr noundef nonnull @.str.228) #10
  unreachable

30:                                               ; preds = %._crit_edge
  call void @llvm.lifetime.end.p0(i64 8, ptr nonnull %3) #9
  call void @llvm.lifetime.end.p0(i64 8, ptr nonnull %2) #9
  ret i64 %23
}